target datalayout = "e-m:e-p270:32:32-p271:32:32-p272:64:64-i64:64-i128:128-f80:128-n8:16:32:64-S128"
target triple = "x86_64-pc-linux-gnu"

%struct.strbuf = type { i64, i64, ptr }
%struct.diff_tempfile = type { ptr, [65 x i8], [10 x i8], ptr }
%struct.object_id = type { [32 x i8], i32 }
%struct.checkout_metadata = type { ptr, %struct.object_id, %struct.object_id }
%struct.tempfile = type { %struct.volatile_list_head, i32, ptr, i32, %struct.strbuf, ptr }
%struct.volatile_list_head = type { ptr, ptr }
%struct.conv_attrs = type { ptr, i32, i32, i32, ptr }

@.str.370 = private unnamed_addr constant [5 x i8] c"%06o\00", align 1
@__const.prep_temp_blob.buf = private unnamed_addr constant %struct.strbuf { i64 0, i64 0, ptr @strbuf_slopbuf }, align 8
@.str.427 = private unnamed_addr constant [16 x i8] c"git-blob-XXXXXX\00", align 1
@.str.428 = private unnamed_addr constant [27 x i8] c"unable to create temp-file\00", align 1
@.str.429 = private unnamed_addr constant [26 x i8] c"unable to write temp-file\00", align 1

; Function Attrs: inlinehint nounwind uwtable
define internal i32 @convert_to_working_tree(ptr noundef %0, ptr noundef %1, ptr noundef %2, i64 noundef %3, ptr noundef %4, ptr noundef %5) #2 {
  %7 = alloca ptr, align 8
  %8 = alloca ptr, align 8
  %9 = alloca ptr, align 8
  %10 = alloca i64, align 8
  %11 = alloca ptr, align 8
  %12 = alloca ptr, align 8
  %13 = alloca %struct.conv_attrs, align 8
  store ptr %0, ptr %7, align 8, !tbaa !121
  store ptr %1, ptr %8, align 8, !tbaa !9
  store ptr %2, ptr %9, align 8, !tbaa !9
  store i64 %3, ptr %10, align 8, !tbaa !11
  store ptr %4, ptr %11, align 8, !tbaa !53
  store ptr %5, ptr %12, align 8, !tbaa !529
  call void @llvm.lifetime.start.p0(i64 32, ptr %13) #10
  %14 = load ptr, ptr %7, align 8, !tbaa !121
  %15 = load ptr, ptr %8, align 8, !tbaa !9
  call void @convert_attrs(ptr noundef %14, ptr noundef %13, ptr noundef %15)
  %16 = load ptr, ptr %8, align 8, !tbaa !9
  %17 = load ptr, ptr %9, align 8, !tbaa !9
  %18 = load i64, ptr %10, align 8, !tbaa !11
  %19 = load ptr, ptr %11, align 8, !tbaa !53
  %20 = load ptr, ptr %12, align 8, !tbaa !529
  %21 = call i32 @convert_to_working_tree_ca(ptr noundef %13, ptr noundef %16, ptr noundef %17, i64 noundef %18, ptr noundef %19, ptr noundef %20)
  call void @llvm.lifetime.end.p0(i64 32, ptr %13) #10
  ret i32 %21
}

; Function Attrs: nounwind uwtable
define internal void @prep_temp_blob(ptr noundef %0, ptr noundef %1, ptr noundef %2, ptr noundef %3, i64 noundef %4, ptr noundef %5, i32 noundef %6) #0 {
  %8 = alloca ptr, align 8
  %9 = alloca ptr, align 8
  %10 = alloca ptr, align 8
  %11 = alloca ptr, align 8
  %12 = alloca i64, align 8
  %13 = alloca ptr, align 8
  %14 = alloca i32, align 4
  %15 = alloca %struct.strbuf, align 8
  %16 = alloca ptr, align 8
  %17 = alloca ptr, align 8
  %18 = alloca %struct.checkout_metadata, align 8
  store ptr %0, ptr %8, align 8, !tbaa !121
  store ptr %1, ptr %9, align 8, !tbaa !9
  store ptr %2, ptr %10, align 8, !tbaa !398
  store ptr %3, ptr %11, align 8, !tbaa !18
  store i64 %4, ptr %12, align 8, !tbaa !11
  store ptr %5, ptr %13, align 8, !tbaa !141
  store i32 %6, ptr %14, align 4, !tbaa !16
  call void @llvm.lifetime.start.p0(i64 24, ptr %15) #10
  call void @llvm.memcpy.p0.p0.i64(ptr align 8 %15, ptr align 8 @__const.prep_temp_blob.buf, i64 24, i1 false)
  call void @llvm.lifetime.start.p0(i64 8, ptr %16) #10
  %19 = load ptr, ptr %9, align 8, !tbaa !9
  %20 = call ptr @xstrdup(ptr noundef %19)
  store ptr %20, ptr %16, align 8, !tbaa !9
  call void @llvm.lifetime.start.p0(i64 8, ptr %17) #10
  %21 = load ptr, ptr %16, align 8, !tbaa !9
  %22 = call ptr @__xpg_basename(ptr noundef %21) #10
  store ptr %22, ptr %17, align 8, !tbaa !9
  call void @llvm.lifetime.start.p0(i64 80, ptr %18) #10
  %23 = load ptr, ptr %13, align 8, !tbaa !141
  call void @init_checkout_metadata(ptr noundef %18, ptr noundef null, ptr noundef null, ptr noundef %23)
  %24 = load ptr, ptr %17, align 8, !tbaa !9
  %25 = call ptr @mks_tempfile_dt(ptr noundef @.str.427, ptr noundef %24)
  %26 = load ptr, ptr %10, align 8, !tbaa !398
  %27 = getelementptr inbounds nuw %struct.diff_tempfile, ptr %26, i32 0, i32 3
  store ptr %25, ptr %27, align 8, !tbaa !522
  %28 = load ptr, ptr %10, align 8, !tbaa !398
  %29 = getelementptr inbounds nuw %struct.diff_tempfile, ptr %28, i32 0, i32 3
  %30 = load ptr, ptr %29, align 8, !tbaa !522
  %31 = icmp ne ptr %30, null
  br i1 %31, label %33, label %32

32:                                               ; preds = %7
  call void (ptr, ...) @die_errno(ptr noundef @.str.428) #12
  unreachable

33:                                               ; preds = %7
  %34 = load ptr, ptr %8, align 8, !tbaa !121
  %35 = load ptr, ptr %9, align 8, !tbaa !9
  %36 = load ptr, ptr %11, align 8, !tbaa !18
  %37 = load i64, ptr %12, align 8, !tbaa !11
  %38 = call i32 @convert_to_working_tree(ptr noundef %34, ptr noundef %35, ptr noundef %36, i64 noundef %37, ptr noundef %15, ptr noundef %18)
  %39 = icmp ne i32 %38, 0
  br i1 %39, label %40, label %45

40:                                               ; preds = %33
  %41 = getelementptr inbounds nuw %struct.strbuf, ptr %15, i32 0, i32 2
  %42 = load ptr, ptr %41, align 8, !tbaa !31
  store ptr %42, ptr %11, align 8, !tbaa !18
  %43 = getelementptr inbounds nuw %struct.strbuf, ptr %15, i32 0, i32 1
  %44 = load i64, ptr %43, align 8, !tbaa !73
  store i64 %44, ptr %12, align 8, !tbaa !11
  br label %45

45:                                               ; preds = %40, %33
  %46 = load ptr, ptr %10, align 8, !tbaa !398
  %47 = getelementptr inbounds nuw %struct.diff_tempfile, ptr %46, i32 0, i32 3
  %48 = load ptr, ptr %47, align 8, !tbaa !522
  %49 = getelementptr inbounds nuw %struct.tempfile, ptr %48, i32 0, i32 1
  %50 = load volatile i32, ptr %49, align 8, !tbaa !525
  %51 = load ptr, ptr %11, align 8, !tbaa !18
  %52 = load i64, ptr %12, align 8, !tbaa !11
  %53 = call i64 @write_in_full(i32 noundef %50, ptr noundef %51, i64 noundef %52)
  %54 = icmp slt i64 %53, 0
  br i1 %54, label %61, label %55

55:                                               ; preds = %45
  %56 = load ptr, ptr %10, align 8, !tbaa !398
  %57 = getelementptr inbounds nuw %struct.diff_tempfile, ptr %56, i32 0, i32 3
  %58 = load ptr, ptr %57, align 8, !tbaa !522
  %59 = call i32 @close_tempfile_gently(ptr noundef %58)
  %60 = icmp ne i32 %59, 0
  br i1 %60, label %61, label %62

61:                                               ; preds = %55, %45
  call void (ptr, ...) @die_errno(ptr noundef @.str.429) #12
  unreachable

62:                                               ; preds = %55
  %63 = load ptr, ptr %10, align 8, !tbaa !398
  %64 = getelementptr inbounds nuw %struct.diff_tempfile, ptr %63, i32 0, i32 3
  %65 = load ptr, ptr %64, align 8, !tbaa !522
  %66 = call ptr @get_tempfile_path(ptr noundef %65)
  %67 = load ptr, ptr %10, align 8, !tbaa !398
  %68 = getelementptr inbounds nuw %struct.diff_tempfile, ptr %67, i32 0, i32 0
  store ptr %66, ptr %68, align 8, !tbaa !400
  %69 = load ptr, ptr %10, align 8, !tbaa !398
  %70 = getelementptr inbounds nuw %struct.diff_tempfile, ptr %69, i32 0, i32 1
  %71 = getelementptr inbounds [65 x i8], ptr %70, i64 0, i64 0
  %72 = load ptr, ptr %13, align 8, !tbaa !141
  %73 = call ptr @oid_to_hex_r(ptr noundef %71, ptr noundef %72)
  %74 = load ptr, ptr %10, align 8, !tbaa !398
  %75 = getelementptr inbounds nuw %struct.diff_tempfile, ptr %74, i32 0, i32 2
  %76 = getelementptr inbounds [10 x i8], ptr %75, i64 0, i64 0
  %77 = load i32, ptr %14, align 4, !tbaa !16
  %78 = call i32 (ptr, i64, ptr, ...) @xsnprintf(ptr noundef %76, i64 noundef 10, ptr noundef @.str.370, i32 noundef %77)
  call void @strbuf_release(ptr noundef %15)
  %79 = load ptr, ptr %16, align 8, !tbaa !9
  call void @free(ptr noundef %79) #10
  call void @llvm.lifetime.end.p0(i64 80, ptr %18) #10
  call void @llvm.lifetime.end.p0(i64 8, ptr %17) #10
  call void @llvm.lifetime.end.p0(i64 8, ptr %16) #10
  call void @llvm.lifetime.end.p0(i64 24, ptr %15) #10
  ret void
}