; Function Attrs: nounwind uwtable
define internal fastcc void @prep_temp_blob(ptr noundef %0, ptr noundef %1, ptr noundef initializes((88, 96)) %2, ptr noundef %3, i64 noundef %4, ptr noundef %5, i32 noundef range(i32 0, 65536) %6) unnamed_addr #0 {
  %8 = alloca %struct.conv_attrs, align 8
  %9 = alloca %struct.strbuf, align 8
  %10 = alloca %struct.checkout_metadata, align 8
  call void @llvm.lifetime.start.p0(i64 24, ptr nonnull %9) #32
  call void @llvm.memcpy.p0.p0.i64(ptr noundef nonnull align 8 dereferenceable(24) %9, ptr noundef nonnull align 8 dereferenceable(24) @__const.run_textconv.buf, i64 24, i1 false)
  %11 = tail call ptr @xstrdup(ptr noundef %1) #32
  %12 = tail call ptr @__xpg_basename(ptr noundef %11) #32
  call void @llvm.lifetime.start.p0(i64 80, ptr nonnull %10) #32
  call void @init_checkout_metadata(ptr noundef nonnull %10, ptr noundef null, ptr noundef null, ptr noundef %5) #32
  %13 = call ptr @mks_tempfile_dt(ptr noundef nonnull @.str.427, ptr noundef %12) #32
  %14 = getelementptr inbounds nuw i8, ptr %2, i64 88
  store ptr %13, ptr %14, align 8, !tbaa !416
  %.not = icmp eq ptr %13, null
  br i1 %.not, label %15, label %16

15:                                               ; preds = %7
  call void (ptr, ...) @die_errno(ptr noundef nonnull @.str.428) #34
  unreachable

16:                                               ; preds = %7
  call void @llvm.lifetime.start.p0(i64 32, ptr nonnull %8) #32
  call void @convert_attrs(ptr noundef %0, ptr noundef nonnull %8, ptr noundef %1) #32
  %17 = call i32 @convert_to_working_tree_ca(ptr noundef nonnull %8, ptr noundef %1, ptr noundef %3, i64 noundef %4, ptr noundef nonnull %9, ptr noundef nonnull %10) #32
  call void @llvm.lifetime.end.p0(i64 32, ptr nonnull %8) #32
  %.not21 = icmp eq i32 %17, 0
  %18 = getelementptr inbounds nuw i8, ptr %9, i64 16
  %19 = load ptr, ptr %18, align 8
  %20 = getelementptr inbounds nuw i8, ptr %9, i64 8
  %21 = load i64, ptr %20, align 8
  %.020 = select i1 %.not21, i64 %4, i64 %21
  %.0 = select i1 %.not21, ptr %3, ptr %19
  %22 = load ptr, ptr %14, align 8, !tbaa !416
  %23 = getelementptr inbounds nuw i8, ptr %22, i64 16
  %24 = load volatile i32, ptr %23, align 8, !tbaa !472
  %25 = call i64 @write_in_full(i32 noundef %24, ptr noundef %.0, i64 noundef %.020) #32
  %26 = icmp slt i64 %25, 0
  br i1 %26, label %30, label %27

27:                                               ; preds = %16
  %28 = load ptr, ptr %14, align 8, !tbaa !416
  %29 = call i32 @close_tempfile_gently(ptr noundef %28) #32
  %.not22 = icmp eq i32 %29, 0
  br i1 %.not22, label %31, label %30

30:                                               ; preds = %27, %16
  call void (ptr, ...) @die_errno(ptr noundef nonnull @.str.429) #34
  unreachable

31:                                               ; preds = %27
  %32 = load ptr, ptr %14, align 8, !tbaa !416
  %33 = call ptr @get_tempfile_path(ptr noundef %32) #32
  store ptr %33, ptr %2, align 8, !tbaa !411
  %34 = getelementptr inbounds nuw i8, ptr %2, i64 8
  %35 = call ptr @oid_to_hex_r(ptr noundef nonnull %34, ptr noundef %5) #32
  %36 = getelementptr inbounds nuw i8, ptr %2, i64 73
  %37 = call i32 (ptr, i64, ptr, ...) @xsnprintf(ptr noundef nonnull %36, i64 noundef 10, ptr noundef nonnull @.str.370, i32 noundef %6) #32
  call void @strbuf_release(ptr noundef nonnull %9) #32
  call void @free(ptr noundef %11) #32
  call void @llvm.lifetime.end.p0(i64 80, ptr nonnull %10) #32
  call void @llvm.lifetime.end.p0(i64 24, ptr nonnull %9) #32
  ret void
}